target datalayout = "e-m:e-p270:32:32-p271:32:32-p272:64:64-i64:64-i128:128-f80:128-n8:16:32:64-S128"
target triple = "x86_64-pc-linux-gnu"

%struct.AVFilterContext = type { ptr, ptr, ptr, ptr, ptr, i32, ptr, ptr, i32, ptr, ptr, i32, i32, ptr, ptr, ptr, ptr, i32, ptr, i32, i32 }
%struct.XPSNRContext = type { ptr, i32, i32, [4 x i8], i32, i64, i32, %struct.FFFrameSync, [4 x i32], [4 x i32], [4 x i32], [4 x i8], ptr, ptr, ptr, ptr, ptr, ptr, [3 x ptr], [3 x ptr], i64, [3 x double], [3 x double], [3 x i32], i32, %struct.XPSNRDSPContext, %struct.PSNRDSPContext }
%struct.FFFrameSync = type { ptr, ptr, i32, %struct.AVRational, i64, ptr, ptr, i32, i32, i8, i8, ptr, i32, i32, i32, i32 }
%struct.AVRational = type { i32, i32 }
%struct.XPSNRDSPContext = type { ptr, ptr, ptr }
%struct.PSNRDSPContext = type { ptr }

@.str.13 = private unnamed_addr constant [2 x i8] c"-\00", align 1
@stdout = external global ptr, align 8
@.str.14 = private unnamed_addr constant [2 x i8] c"w\00", align 1
@.str.15 = private unnamed_addr constant [39 x i8] c"Could not open statistics file %s: %s\0A\00", align 1

; Function Attrs: inlinehint nounwind uwtable
define internal ptr @av_make_error_string(ptr noundef %0, i64 noundef %1, i32 noundef %2) #4 {
  %4 = alloca ptr, align 8
  %5 = alloca i64, align 8
  %6 = alloca i32, align 4
  store ptr %0, ptr %4, align 8, !tbaa !100
  store i64 %1, ptr %5, align 8, !tbaa !84
  store i32 %2, ptr %6, align 4, !tbaa !36
  %7 = load i32, ptr %6, align 4, !tbaa !36
  %8 = load ptr, ptr %4, align 8, !tbaa !100
  %9 = load i64, ptr %5, align 8, !tbaa !84
  %10 = call i32 @av_strerror(i32 noundef %7, ptr noundef %8, i64 noundef %9)
  %11 = load ptr, ptr %4, align 8, !tbaa !100
  ret ptr %11
}

; Function Attrs: cold nounwind optsize uwtable
define internal i32 @init(ptr noundef %0) #1 {
  %2 = alloca i32, align 4
  %3 = alloca ptr, align 8
  %4 = alloca ptr, align 8
  %5 = alloca i32, align 4
  %6 = alloca i32, align 4
  %7 = alloca [64 x i8], align 1
  %8 = alloca i32, align 4
  store ptr %0, ptr %3, align 8, !tbaa !4
  call void @llvm.lifetime.start.p0(i64 8, ptr %4) #12
  %9 = load ptr, ptr %3, align 8, !tbaa !4
  %10 = getelementptr inbounds nuw %struct.AVFilterContext, ptr %9, i32 0, i32 9
  %11 = load ptr, ptr %10, align 8, !tbaa !9
  store ptr %11, ptr %4, align 8, !tbaa !22
  call void @llvm.lifetime.start.p0(i64 4, ptr %5) #12
  %12 = load ptr, ptr %4, align 8, !tbaa !22
  %13 = getelementptr inbounds nuw %struct.XPSNRContext, ptr %12, i32 0, i32 13
  %14 = load ptr, ptr %13, align 8, !tbaa !24
  %15 = icmp ne ptr %14, null
  br i1 %15, label %16, label %51

16:                                               ; preds = %1
  %17 = load ptr, ptr %4, align 8, !tbaa !22
  %18 = getelementptr inbounds nuw %struct.XPSNRContext, ptr %17, i32 0, i32 13
  %19 = load ptr, ptr %18, align 8, !tbaa !24
  %20 = call i32 @strcmp(ptr noundef %19, ptr noundef @.str.13) #13
  %21 = icmp ne i32 %20, 0
  br i1 %21, label %26, label %22

22:                                               ; preds = %16
  %23 = load ptr, ptr @stdout, align 8, !tbaa !34
  %24 = load ptr, ptr %4, align 8, !tbaa !22
  %25 = getelementptr inbounds nuw %struct.XPSNRContext, ptr %24, i32 0, i32 12
  store ptr %23, ptr %25, align 8, !tbaa !35
  br label %50

26:                                               ; preds = %16
  %27 = load ptr, ptr %4, align 8, !tbaa !22
  %28 = getelementptr inbounds nuw %struct.XPSNRContext, ptr %27, i32 0, i32 13
  %29 = load ptr, ptr %28, align 8, !tbaa !24
  %30 = call ptr @avpriv_fopen_utf8(ptr noundef %29, ptr noundef @.str.14)
  %31 = load ptr, ptr %4, align 8, !tbaa !22
  %32 = getelementptr inbounds nuw %struct.XPSNRContext, ptr %31, i32 0, i32 12
  store ptr %30, ptr %32, align 8, !tbaa !35
  %33 = load ptr, ptr %4, align 8, !tbaa !22
  %34 = getelementptr inbounds nuw %struct.XPSNRContext, ptr %33, i32 0, i32 12
  %35 = load ptr, ptr %34, align 8, !tbaa !35
  %36 = icmp ne ptr %35, null
  br i1 %36, label %49, label %37

37:                                               ; preds = %26
  call void @llvm.lifetime.start.p0(i64 4, ptr %6) #12
  %38 = call ptr @__errno_location() #14
  %39 = load i32, ptr %38, align 4, !tbaa !36
  %40 = sub nsw i32 0, %39
  store i32 %40, ptr %6, align 4, !tbaa !36
  %41 = load ptr, ptr %3, align 8, !tbaa !4
  %42 = load ptr, ptr %4, align 8, !tbaa !22
  %43 = getelementptr inbounds nuw %struct.XPSNRContext, ptr %42, i32 0, i32 13
  %44 = load ptr, ptr %43, align 8, !tbaa !24
  call void @llvm.memset.p0.i64(ptr align 1 %7, i8 0, i64 64, i1 false)
  %45 = getelementptr inbounds [64 x i8], ptr %7, i64 0, i64 0
  %46 = load i32, ptr %6, align 4, !tbaa !36
  %47 = call ptr @av_make_error_string(ptr noundef %45, i64 noundef 64, i32 noundef %46)
  call void (ptr, i32, ptr, ...) @av_log(ptr noundef %41, i32 noundef 16, ptr noundef @.str.15, ptr noundef %44, ptr noundef %47)
  %48 = load i32, ptr %6, align 4, !tbaa !36
  store i32 %48, ptr %2, align 4
  store i32 1, ptr %8, align 4
  call void @llvm.lifetime.end.p0(i64 4, ptr %6) #12
  br label %92

49:                                               ; preds = %26
  br label %50

50:                                               ; preds = %49, %22
  br label %51

51:                                               ; preds = %50, %1
  %52 = load ptr, ptr %4, align 8, !tbaa !22
  %53 = getelementptr inbounds nuw %struct.XPSNRContext, ptr %52, i32 0, i32 14
  store ptr null, ptr %53, align 8, !tbaa !37
  %54 = load ptr, ptr %4, align 8, !tbaa !22
  %55 = getelementptr inbounds nuw %struct.XPSNRContext, ptr %54, i32 0, i32 15
  store ptr null, ptr %55, align 8, !tbaa !38
  store i32 0, ptr %5, align 4, !tbaa !36
  br label %56

56:                                               ; preds = %85, %51
  %57 = load i32, ptr %5, align 4, !tbaa !36
  %58 = icmp slt i32 %57, 3
  br i1 %58, label %59, label %88

59:                                               ; preds = %56
  %60 = load ptr, ptr %4, align 8, !tbaa !22
  %61 = getelementptr inbounds nuw %struct.XPSNRContext, ptr %60, i32 0, i32 18
  %62 = load i32, ptr %5, align 4, !tbaa !36
  %63 = sext i32 %62 to i64
  %64 = getelementptr inbounds [3 x ptr], ptr %61, i64 0, i64 %63
  store ptr null, ptr %64, align 8, !tbaa !39
  %65 = load ptr, ptr %4, align 8, !tbaa !22
  %66 = getelementptr inbounds nuw %struct.XPSNRContext, ptr %65, i32 0, i32 19
  %67 = load i32, ptr %5, align 4, !tbaa !36
  %68 = sext i32 %67 to i64
  %69 = getelementptr inbounds [3 x ptr], ptr %66, i64 0, i64 %68
  store ptr null, ptr %69, align 8, !tbaa !39
  %70 = load ptr, ptr %4, align 8, !tbaa !22
  %71 = getelementptr inbounds nuw %struct.XPSNRContext, ptr %70, i32 0, i32 21
  %72 = load i32, ptr %5, align 4, !tbaa !36
  %73 = sext i32 %72 to i64
  %74 = getelementptr inbounds [3 x double], ptr %71, i64 0, i64 %73
  store double 0.000000e+00, ptr %74, align 8, !tbaa !40
  %75 = load ptr, ptr %4, align 8, !tbaa !22
  %76 = getelementptr inbounds nuw %struct.XPSNRContext, ptr %75, i32 0, i32 22
  %77 = load i32, ptr %5, align 4, !tbaa !36
  %78 = sext i32 %77 to i64
  %79 = getelementptr inbounds [3 x double], ptr %76, i64 0, i64 %78
  store double 0.000000e+00, ptr %79, align 8, !tbaa !40
  %80 = load ptr, ptr %4, align 8, !tbaa !22
  %81 = getelementptr inbounds nuw %struct.XPSNRContext, ptr %80, i32 0, i32 23
  %82 = load i32, ptr %5, align 4, !tbaa !36
  %83 = sext i32 %82 to i64
  %84 = getelementptr inbounds [3 x i32], ptr %81, i64 0, i64 %83
  store i32 1, ptr %84, align 4, !tbaa !36
  br label %85

85:                                               ; preds = %59
  %86 = load i32, ptr %5, align 4, !tbaa !36
  %87 = add nsw i32 %86, 1
  store i32 %87, ptr %5, align 4, !tbaa !36
  br label %56, !llvm.loop !42

88:                                               ; preds = %56
  %89 = load ptr, ptr %4, align 8, !tbaa !22
  %90 = getelementptr inbounds nuw %struct.XPSNRContext, ptr %89, i32 0, i32 7
  %91 = getelementptr inbounds nuw %struct.FFFrameSync, ptr %90, i32 0, i32 5
  store ptr @do_xpsnr, ptr %91, align 8, !tbaa !44
  store i32 0, ptr %2, align 4
  store i32 1, ptr %8, align 4
  br label %92

92:                                               ; preds = %88, %37
  call void @llvm.lifetime.end.p0(i64 4, ptr %5) #12
  call void @llvm.lifetime.end.p0(i64 8, ptr %4) #12
  %93 = load i32, ptr %2, align 4
  ret i32 %93
}