; Function Attrs: cold nounwind optsize uwtable
define internal range(i32 -2147483647, -2147483648) i32 @init(ptr noundef %0) #1 {
  %2 = alloca [64 x i8], align 1
  %3 = getelementptr inbounds nuw i8, ptr %0, i64 72
  %4 = load ptr, ptr %3, align 8, !tbaa !4
  %5 = getelementptr inbounds nuw i8, ptr %4, i64 200
  %6 = load ptr, ptr %5, align 8, !tbaa !20
  %.not = icmp eq ptr %6, null
  br i1 %.not, label %22, label %sub_0

sub_0:                                            ; preds = %1
  %7 = load i8, ptr %6, align 1
  %.not31 = icmp eq i8 %7, 45
  br i1 %.not31, label %.tail, label %.tail.thread

.tail:                                            ; preds = %sub_0
  %8 = getelementptr inbounds nuw i8, ptr %6, i64 1
  %9 = load i8, ptr %8, align 1
  %10 = icmp eq i8 %9, 0
  br i1 %10, label %11, label %.tail.thread

11:                                               ; preds = %.tail
  %12 = load ptr, ptr @stdout, align 8, !tbaa !31
  %13 = getelementptr inbounds nuw i8, ptr %4, i64 192
  store ptr %12, ptr %13, align 8, !tbaa !32
  br label %22

.tail.thread:                                     ; preds = %sub_0, %.tail
  %14 = tail call ptr @avpriv_fopen_utf8(ptr noundef nonnull %6, ptr noundef nonnull @.str.14) #15
  %15 = getelementptr inbounds nuw i8, ptr %4, i64 192
  store ptr %14, ptr %15, align 8, !tbaa !32
  %.not29 = icmp eq ptr %14, null
  br i1 %.not29, label %16, label %22

16:                                               ; preds = %.tail.thread
  %17 = tail call ptr @__errno_location() #16
  %18 = load i32, ptr %17, align 4, !tbaa !33
  %19 = sub nsw i32 0, %18
  %20 = load ptr, ptr %5, align 8, !tbaa !20
  call void @llvm.memset.p0.i64(ptr noundef nonnull align 1 dereferenceable(64) %2, i8 0, i64 64, i1 false)
  %21 = call i32 @av_strerror(i32 noundef range(i32 -2147483647, -2147483648) %19, ptr noundef nonnull %2, i64 noundef 64) #15
  call void (ptr, i32, ptr, ...) @av_log(ptr noundef nonnull %0, i32 noundef 16, ptr noundef nonnull @.str.15, ptr noundef %20, ptr noundef nonnull %2) #15
  br label %31

22:                                               ; preds = %11, %.tail.thread, %1
  %23 = getelementptr inbounds nuw i8, ptr %4, i64 208
  %24 = getelementptr inbounds nuw i8, ptr %4, i64 240
  %25 = getelementptr inbounds nuw i8, ptr %4, i64 296
  %26 = getelementptr inbounds nuw i8, ptr %4, i64 344
  tail call void @llvm.memset.p0.i64(ptr noundef nonnull align 8 dereferenceable(16) %23, i8 0, i64 16, i1 false)
  tail call void @llvm.memset.p0.i64(ptr noundef nonnull align 8 dereferenceable(48) %24, i8 0, i64 48, i1 false)
  tail call void @llvm.memset.p0.i64(ptr noundef nonnull align 8 dereferenceable(48) %25, i8 0, i64 48, i1 false)
  br label %27

27:                                               ; preds = %22, %27
  %indvars.iv = phi i64 [ 0, %22 ], [ %indvars.iv.next, %27 ]
  %28 = getelementptr inbounds nuw [3 x i32], ptr %26, i64 0, i64 %indvars.iv
  store i32 1, ptr %28, align 4, !tbaa !33
  %indvars.iv.next = add nuw nsw i64 %indvars.iv, 1
  %exitcond.not = icmp eq i64 %indvars.iv.next, 3
  br i1 %exitcond.not, label %29, label %27, !llvm.loop !34

29:                                               ; preds = %27
  %30 = getelementptr inbounds nuw i8, ptr %4, i64 80
  store ptr @do_xpsnr, ptr %30, align 8, !tbaa !36
  br label %31

31:                                               ; preds = %29, %16
  %.0 = phi i32 [ 0, %29 ], [ %19, %16 ]
  ret i32 %.0
}